(dp0
S'mexican'
p1
(dp2
S'yes'
p3
I1
sS'no'
p4
I0
ssS'chinese'
p5
(dp6
S'yes'
p7
I1
sS'no'
p8
I0
ssS'german'
p9
(dp10
S'yes'
p11
I1
sS'no'
p12
I0
ssS'noiselevel'
p13
(dp14
S'loud'
p15
I4
sS'average'
p16
I2
sS'veryloud'
p17
I8
sS'quiet'
p18
I1
sS'no'
p19
I0
ssS'moroccan'
p20
(dp21
S'yes'
p22
I1
sS'no'
p23
I0
ssS'russian'
p24
(dp25
S'yes'
p26
I1
sS'no'
p27
I0
ssS'middleeastern'
p28
(dp29
S'yes'
p30
I1
sS'no'
p31
I0
ssS'cambodian'
p32
(dp33
S'yes'
p34
I1
sS'no'
p35
I0
ssS'chickenwings'
p36
(dp37
S'yes'
p38
I1
sS'no'
p39
I0
ssS'senegalese'
p40
(dp41
S'yes'
p42
I1
sS'no'
p43
I0
ssS'austrian'
p44
(dp45
S'yes'
p46
I1
sS'no'
p47
I0
ssS'hotpot'
p48
(dp49
S'yes'
p50
I1
sS'no'
p51
I0
ssS'turkish'
p52
(dp53
S'yes'
p54
I1
sS'no'
p55
I0
ssS'arabian'
p56
(dp57
S'yes'
p58
I1
sS'no'
p59
I0
ssS'ambience'
p60
(dp61
S'romantic'
p62
I64
sS'no'
p63
I0
sS'intimate'
p64
I32
sS'touristy'
p65
I8
sS'hipster'
p66
I2
sS'divey'
p67
I1
sS'classy'
p68
I128
sS'trendy'
p69
I16
sS'upscale'
p70
I256
sS'casual'
p71
I4
ssS'soulfood'
p72
(dp73
S'yes'
p74
I1
sS'no'
p75
I0
ssS'acceptsbitcoin'
p76
(dp77
S'yes'
p78
I1
sS'no'
p79
I0
ssS'argentine'
p80
(dp81
S'yes'
p82
I1
sS'no'
p83
I0
ssS'indonesian'
p84
(dp85
S'yes'
p86
I1
sS'no'
p87
I0
ssS'hainan'
p88
(dp89
S'yes'
p90
I1
sS'no'
p91
I0
ssS'hungarian'
p92
(dp93
S'yes'
p94
I1
sS'no'
p95
I0
ssS'pricerangeperperson'
p96
(dp97
S'$$'
p98
I2
sS'no'
p99
I0
sS'$$$$'
p100
I8
sS'$'
p101
I1
sS'$$$'
p102
I4
ssS'ethiopian'
p103
(dp104
S'yes'
p105
I1
sS'no'
p106
I0
ssS'vegan'
p107
(dp108
S'yes'
p109
I1
sS'no'
p110
I0
ssS'outdoorseating'
p111
(dp112
S'yes'
p113
I1
sS'no'
p114
I0
ssS'catalan'
p115
(dp116
S'yes'
p117
I1
sS'no'
p118
I0
ssS'chickenshop'
p119
(dp120
S'yes'
p121
I1
sS'no'
p122
I0
ssS'szechuan'
p123
(dp124
S'yes'
p125
I1
sS'no'
p126
I0
ssS'vietnamese'
p127
(dp128
S'yes'
p129
I1
sS'no'
p130
I0
ssS'international'
p131
(dp132
S'yes'
p133
I1
sS'no'
p134
I0
ssS'ramen'
p135
(dp136
S'yes'
p137
I1
sS'no'
p138
I0
ssS'hotdogs'
p139
(dp140
S'yes'
p141
I1
sS'no'
p142
I0
ssS'fastfood'
p143
(dp144
S'yes'
p145
I1
sS'no'
p146
I0
ssS'polish'
p147
(dp148
S'yes'
p149
I1
sS'no'
p150
I0
ssS'latinamerican'
p151
(dp152
S'yes'
p153
I1
sS'no'
p154
I0
ssS'malaysian'
p155
(dp156
S'yes'
p157
I1
sS'no'
p158
I0
ssS'cajun/creole'
p159
(dp160
S'yes'
p161
I1
sS'no'
p162
I0
ssS'poutineries'
p163
(dp164
S'yes'
p165
I1
sS'no'
p166
I0
ssS'italian'
p167
(dp168
S'yes'
p169
I1
sS'no'
p170
I0
ssS'portuguese'
p171
(dp172
S'yes'
p173
I1
sS'no'
p174
I0
ssS'steakhouses'
p175
(dp176
S'yes'
p177
I1
sS'no'
p178
I0
ssS'czech'
p179
(dp180
S'yes'
p181
I1
sS'no'
p182
I0
ssS'live/rawfood'
p183
(dp184
S'yes'
p185
I1
sS'no'
p186
I0
ssS'basque'
p187
(dp188
S'yes'
p189
I1
sS'no'
p190
I0
ssS'mediterranean'
p191
(dp192
S'yes'
p193
I1
sS'no'
p194
I0
ssS'japanese'
p195
(dp196
S'yes'
p197
I1
sS'no'
p198
I0
ssS'laotian'
p199
(dp200
S'yes'
p201
I1
sS'no'
p202
I0
ssS'parking'
p203
(dp204
S'privatelot'
p205
I2
sS'street'
p206
I1
sS'no'
p207
I0
sS'valet'
p208
I4
ssS'falafel'
p209
(dp210
S'yes'
p211
I1
sS'no'
p212
I0
ssS'newamerican'
p213
(dp214
S'yes'
p215
I1
sS'no'
p216
I0
ssS'moderneuropean'
p217
(dp218
S'yes'
p219
I1
sS'no'
p220
I0
ssS'puertorican'
p221
(dp222
S'yes'
p223
I1
sS'no'
p224
I0
ssS'caribbean'
p225
(dp226
S'yes'
p227
I1
sS'no'
p228
I0
ssS'alcohol'
p229
(dp230
S'beer&wineonly'
p231
I1
sS'fullbar'
p232
I2
sS'no'
p233
I0
ssS'waiterservice'
p234
(dp235
S'yes'
p236
I1
sS'no'
p237
I0
ssS'fondue'
p238
(dp239
S'yes'
p240
I1
sS'no'
p241
I0
ssS'asianfusion'
p242
(dp243
S'yes'
p244
I1
sS'no'
p245
I0
ssS'comfortfood'
p246
(dp247
S'yes'
p248
I1
sS'no'
p249
I0
ssS'dimsum'
p250
(dp251
S'yes'
p252
I1
sS'no'
p253
I0
ssS'attire'
p254
(dp255
S'no'
p256
I0
sS'dressy'
p257
I2
sS'formal(jacketrequired)'
p258
I4
sS'casual'
p259
I1
ssS'afghani'
p260
(dp261
S'yes'
p262
I1
sS'no'
p263
I0
ssS'colombian'
p264
(dp265
S'yes'
p266
I1
sS'no'
p267
I0
ssS'teppanyaki'
p268
(dp269
S'yes'
p270
I1
sS'no'
p271
I0
ssS'calabrian'
p272
(dp273
S'yes'
p274
I1
sS'no'
p275
I0
ssS'trinidadian'
p276
(dp277
S'yes'
p278
I1
sS'no'
p279
I0
ssS'gluten-free'
p280
(dp281
S'yes'
p282
I1
sS'no'
p283
I0
ssS'french'
p284
(dp285
S'yes'
p286
I1
sS'no'
p287
I0
ssS'slovakian'
p288
(dp289
S'yes'
p290
I1
sS'no'
p291
I0
ssS'foodcourt'
p292
(dp293
S'yes'
p294
I1
sS'no'
p295
I0
ssS'armenian'
p296
(dp297
S'yes'
p298
I1
sS'no'
p299
I0
ssS'bestnights'
p300
(dp301
S'no'
p302
I0
ssS'gastropubs'
p303
(dp304
S'yes'
p305
I1
sS'no'
p306
I0
ssS'wi-fi'
p307
(dp308
S'free'
p309
I1
sS'paid'
p310
I2
sS'no'
p311
I0
ssS'filipino'
p312
(dp313
S'yes'
p314
I1
sS'no'
p315
I0
ssS'uzbek'
p316
(dp317
S'yes'
p318
I1
sS'no'
p319
I0
ssS'vegetarian'
p320
(dp321
S'yes'
p322
I1
sS'no'
p323
I0
ssS'cafes'
p324
(dp325
S'yes'
p326
I1
sS'no'
p327
I0
ssS'pakistani'
p328
(dp329
S'yes'
p330
I1
sS'no'
p331
I0
ssS'british'
p332
(dp333
S'yes'
p334
I1
sS'no'
p335
I0
ssS'kosher'
p336
(dp337
S'yes'
p338
I1
sS'no'
p339
I0
ssS'sushibars'
p340
(dp341
S'yes'
p342
I1
sS'no'
p343
I0
ssS'supperclubs'
p344
(dp345
S'yes'
p346
I1
sS'no'
p347
I0
ssS'wheelchairaccessible'
p348
(dp349
S'yes'
p350
I1
sS'no'
p351
I0
ssS'diners'
p352
(dp353
S'yes'
p354
I1
sS'no'
p355
I0
ssS'dogsallowed'
p356
(dp357
S'yes'
p358
I1
sS'no'
p359
I0
ssS'smokingallowed'
p360
(dp361
S'yes'
p362
I1
sS'outdoor'
p363
I2
sS'no'
p364
I0
ssS'opened24hrs'
p365
(dp366
S'yes'
p367
I1
sS'no'
p368
I0
ssS'spanish'
p369
(dp370
S'yes'
p371
I1
sS'no'
p372
I0
ssS'goodfor'
p373
(dp374
S'lunch'
p375
I4
sS'dinner'
p376
I8
sS'no'
p377
I0
sS'dessert'
p378
I32
sS'breakfast'
p379
I1
sS'brunch'
p380
I2
sS'latenight'
p381
I16
ssS'cafeteria'
p382
(dp383
S'yes'
p384
I1
sS'no'
p385
I0
ssS'goodfordancing'
p386
(dp387
S'yes'
p388
I1
sS'no'
p389
I0
ssS'haspooltable'
p390
(dp391
S'yes'
p392
I1
sS'no'
p393
I0
ssS'buffets'
p394
(dp395
S'yes'
p396
I1
sS'no'
p397
I0
ssS'music'
p398
(dp399
S'background'
p400
I0
ssS'brazilian'
p401
(dp402
S'yes'
p403
I1
sS'no'
p404
I0
ssS'creperies'
p405
(dp406
S'yes'
p407
I1
sS'no'
p408
I0
ssS'tex-mex'
p409
(dp410
S'yes'
p411
I1
sS'no'
p412
I0
ssS'bbq'
p413
(dp414
S'yes'
p415
I1
sS'no'
p416
I0
ssS'belgian'
p417
(dp418
S'yes'
p419
I1
sS'no'
p420
I0
ssS'tradamerican'
p421
(dp422
S'yes'
p423
I1
sS'no'
p424
I0
ssS'srilankan'
p425
(dp426
S'yes'
p427
I1
sS'no'
p428
I0
ssS'hawaiian'
p429
(dp430
S'yes'
p431
I1
sS'no'
p432
I0
ssS'fish&chips'
p433
(dp434
S'yes'
p435
I1
sS'no'
p436
I0
ssS'taiwanese'
p437
(dp438
S'yes'
p439
I1
sS'no'
p440
I0
ssS'cheesesteaks'
p441
(dp442
S'yes'
p443
I1
sS'no'
p444
I0
ssS'delivery'
p445
(dp446
S'yes'
p447
I1
sS'no'
p448
I0
ssS'tuscan'
p449
(dp450
S'yes'
p451
I1
sS'no'
p452
I0
ssS'smoking'
p453
(dp454
S'yes'
p455
I1
sS'no'
p456
I0
ssS'thai'
p457
(dp458
S'yes'
p459
I1
sS'no'
p460
I0
ssS'tapas/smallplates'
p461
(dp462
S'yes'
p463
I1
sS'no'
p464
I0
ssS'haitian'
p465
(dp466
S'yes'
p467
I1
sS'no'
p468
I0
ssS'lebanese'
p469
(dp470
S'yes'
p471
I1
sS'no'
p472
I0
ssS'take-out'
p473
(dp474
S'yes'
p475
I1
sS'no'
p476
I0
ssS'venezuelan'
p477
(dp478
S'yes'
p479
I1
sS'no'
p480
I0
ssS'dominican'
p481
(dp482
S'yes'
p483
I1
sS'no'
p484
I0
ssS'salad'
p485
(dp486
S'yes'
p487
I1
sS'no'
p488
I0
ssS'arroceria/paella'
p489
(dp490
S'yes'
p491
I1
sS'no'
p492
I0
ssS'coatcheck'
p493
(dp494
S'yes'
p495
I1
sS'no'
p496
I0
ssS'himalayan/nepalese'
p497
(dp498
S'yes'
p499
I1
sS'no'
p500
I0
ssS'scandinavian'
p501
(dp502
S'yes'
p503
I1
sS'no'
p504
I0
ssS'venetian'
p505
(dp506
S'yes'
p507
I1
sS'no'
p508
I0
ssS'soup'
p509
(dp510
S'yes'
p511
I1
sS'no'
p512
I0
ssS'persian/iranian'
p513
(dp514
S'yes'
p515
I1
sS'no'
p516
I0
ssS'happyhour'
p517
(dp518
S'yes'
p519
I1
sS'no'
p520
I0
ssS'acceptsapplepay'
p521
(dp522
S'yes'
p523
I1
sS'no'
p524
I0
ssS'mongolian'
p525
(dp526
S'yes'
p527
I1
sS'no'
p528
I0
ssS'irish'
p529
(dp530
S'yes'
p531
I1
sS'no'
p532
I0
ssS'peruvian'
p533
(dp534
S'yes'
p535
I1
sS'no'
p536
I0
ssS'southafrican'
p537
(dp538
S'yes'
p539
I1
sS'no'
p540
I0
ssS'breakfast&brunch'
p541
(dp542
S'yes'
p543
I1
sS'no'
p544
I0
ssS'singaporean'
p545
(dp546
S'yes'
p547
I1
sS'no'
p548
I0
ssS'delis'
p549
(dp550
S'yes'
p551
I1
sS'no'
p552
I0
ssS'halal'
p553
(dp554
S'yes'
p555
I1
sS'no'
p556
I0
ssS'cantonese'
p557
(dp558
S'yes'
p559
I1
sS'no'
p560
I0
ssS'goodforkids'
p561
(dp562
S'yes'
p563
I1
sS'no'
p564
I0
ssS'foodstands'
p565
(dp566
S'yes'
p567
I1
sS'no'
p568
I0
ssS'nicaraguan'
p569
(dp570
S'yes'
p571
I1
sS'no'
p572
I0
ssS'salvadoran'
p573
(dp574
S'yes'
p575
I1
sS'no'
p576
I0
ssS'greek'
p577
(dp578
S'yes'
p579
I1
sS'no'
p580
I0
ssS'syrian'
p581
(dp582
S'yes'
p583
I1
sS'no'
p584
I0
ssS'egyptian'
p585
(dp586
S'yes'
p587
I1
sS'no'
p588
I0
ssS'sardinian'
p589
(dp590
S'yes'
p591
I1
sS'no'
p592
I0
ssS'waffles'
p593
(dp594
S'yes'
p595
I1
sS'no'
p596
I0
ssS'dinnertheater'
p597
(dp598
S'yes'
p599
I1
sS'no'
p600
I0
ssS'takesreservations'
p601
(dp602
S'yes'
p603
I1
sS'no'
p604
I0
ssS'sandwiches'
p605
(dp606
S'yes'
p607
I1
sS'no'
p608
I0
ssS'acceptsinsurance'
p609
(dp610
S'yes'
p611
I1
sS'no'
p612
I0
ssS'korean'
p613
(dp614
S'yes'
p615
I1
sS'no'
p616
I0
ssS'georgian'
p617
(dp618
S'yes'
p619
I1
sS'no'
p620
I0
ssS'pizza'
p621
(dp622
S'yes'
p623
I1
sS'no'
p624
I0
ssS'shanghainese'
p625
(dp626
S'yes'
p627
I1
sS'no'
p628
I0
ssS'drive-thru'
p629
(dp630
S'yes'
p631
I1
sS'no'
p632
I0
ssS'indian'
p633
(dp634
S'yes'
p635
I1
sS'no'
p636
I0
ssS'caters'
p637
(dp638
S'yes'
p639
I1
sS'no'
p640
I0
ssS'ukrainian'
p641
(dp642
S'yes'
p643
I1
sS'no'
p644
I0
ssS'brasseries'
p645
(dp646
S'yes'
p647
I1
sS'no'
p648
I0
ssS'southern'
p649
(dp650
S'yes'
p651
I1
sS'no'
p652
I0
ssS'iberian'
p653
(dp654
S'yes'
p655
I1
sS'no'
p656
I0
ssS'acceptscreditcards'
p657
(dp658
S'yes'
p659
I1
sS'no'
p660
I0
ssS'tapasbars'
p661
(dp662
S'yes'
p663
I1
sS'no'
p664
I0
ssS'cuban'
p665
(dp666
S'yes'
p667
I1
sS'no'
p668
I0
ssS'hastv'
p669
(dp670
S'yes'
p671
I1
sS'no'
p672
I0
ssS'seafood'
p673
(dp674
S'yes'
p675
I1
sS'no'
p676
I0
ssS'goodforgroups'
p677
(dp678
S'yes'
p679
I1
sS'no'
p680
I0
ssS'burgers'
p681
(dp682
S'yes'
p683
I1
sS'no'
p684
I0
ssS'burmese'
p685
(dp686
S'yes'
p687
I1
sS'no'
p688
I0
ssS'bikeparking'
p689
(dp690
S'yes'
p691
I1
sS'no'
p692
I0
ssS'african'
p693
(dp694
S'yes'
p695
I1
sS'no'
p696
I0
ss.